; ModuleID = '10/1322.c'
source_filename = "10/1322.c"
target datalayout = "e-m:e-p270:32:32-p271:32:32-p272:64:64-i64:64-f80:128-n8:16:32:64-S128"
target triple = "x86_64-pc-linux-gnu"

@.str = private unnamed_addr constant [3 x i8] c"%d\00", align 1
@k = common dso_local global [26 x [2 x i32]] zeroinitializer, align 16

; Function Attrs: noinline nounwind uwtable
define dso_local i32 @main() #0 {
  %1 = alloca i32, align 4
  %2 = alloca i32, align 4
  %3 = alloca i32, align 4
  %4 = alloca i32, align 4
  %5 = alloca i32, align 4
  store i32 0, i32* %1, align 4
  store i32 0, i32* %5, align 4
  %6 = call i32 (i8*, ...) @__isoc99_scanf(i8* getelementptr inbounds ([3 x i8], [3 x i8]* @.str, i64 0, i64 0), i32* %4)
  store i32 1, i32* %2, align 4
  br label %7

7:                                                ; preds = %80, %0
  %8 = load i32, i32* %2, align 4
  %9 = load i32, i32* %4, align 4
  %10 = icmp sle i32 %8, %9
  br i1 %10, label %11, label %83

11:                                               ; preds = %7
  %12 = load i32, i32* %2, align 4
  %13 = sext i32 %12 to i64
  %14 = getelementptr inbounds [26 x [2 x i32]], [26 x [2 x i32]]* @k, i64 0, i64 %13
  %15 = getelementptr inbounds [2 x i32], [2 x i32]* %14, i64 0, i64 1
  %16 = call i32 (i8*, ...) @__isoc99_scanf(i8* getelementptr inbounds ([3 x i8], [3 x i8]* @.str, i64 0, i64 0), i32* %15)
  %17 = load i32, i32* %2, align 4
  %18 = sext i32 %17 to i64
  %19 = getelementptr inbounds [26 x [2 x i32]], [26 x [2 x i32]]* @k, i64 0, i64 %18
  %20 = getelementptr inbounds [2 x i32], [2 x i32]* %19, i64 0, i64 0
  store i32 1, i32* %20, align 8
  store i32 0, i32* %3, align 4
  br label %21

21:                                               ; preds = %62, %11
  %22 = load i32, i32* %3, align 4
  %23 = load i32, i32* %2, align 4
  %24 = icmp slt i32 %22, %23
  br i1 %24, label %25, label %65

25:                                               ; preds = %21
  %26 = load i32, i32* %3, align 4
  %27 = sext i32 %26 to i64
  %28 = getelementptr inbounds [26 x [2 x i32]], [26 x [2 x i32]]* @k, i64 0, i64 %27
  %29 = getelementptr inbounds [2 x i32], [2 x i32]* %28, i64 0, i64 1
  %30 = load i32, i32* %29, align 4
  %31 = load i32, i32* %2, align 4
  %32 = sext i32 %31 to i64
  %33 = getelementptr inbounds [26 x [2 x i32]], [26 x [2 x i32]]* @k, i64 0, i64 %32
  %34 = getelementptr inbounds [2 x i32], [2 x i32]* %33, i64 0, i64 1
  %35 = load i32, i32* %34, align 4
  %36 = icmp sge i32 %30, %35
  br i1 %36, label %37, label %61

37:                                               ; preds = %25
  %38 = load i32, i32* %3, align 4
  %39 = sext i32 %38 to i64
  %40 = getelementptr inbounds [26 x [2 x i32]], [26 x [2 x i32]]* @k, i64 0, i64 %39
  %41 = getelementptr inbounds [2 x i32], [2 x i32]* %40, i64 0, i64 0
  %42 = load i32, i32* %41, align 8
  %43 = add nsw i32 %42, 1
  %44 = load i32, i32* %2, align 4
  %45 = sext i32 %44 to i64
  %46 = getelementptr inbounds [26 x [2 x i32]], [26 x [2 x i32]]* @k, i64 0, i64 %45
  %47 = getelementptr inbounds [2 x i32], [2 x i32]* %46, i64 0, i64 0
  %48 = load i32, i32* %47, align 8
  %49 = icmp sgt i32 %43, %48
  br i1 %49, label %50, label %61

50:                                               ; preds = %37
  %51 = load i32, i32* %3, align 4
  %52 = sext i32 %51 to i64
  %53 = getelementptr inbounds [26 x [2 x i32]], [26 x [2 x i32]]* @k, i64 0, i64 %52
  %54 = getelementptr inbounds [2 x i32], [2 x i32]* %53, i64 0, i64 0
  %55 = load i32, i32* %54, align 8
  %56 = add nsw i32 %55, 1
  %57 = load i32, i32* %2, align 4
  %58 = sext i32 %57 to i64
  %59 = getelementptr inbounds [26 x [2 x i32]], [26 x [2 x i32]]* @k, i64 0, i64 %58
  %60 = getelementptr inbounds [2 x i32], [2 x i32]* %59, i64 0, i64 0
  store i32 %56, i32* %60, align 8
  br label %61

61:                                               ; preds = %50, %37, %25
  br label %62

62:                                               ; preds = %61
  %63 = load i32, i32* %3, align 4
  %64 = add nsw i32 %63, 1
  store i32 %64, i32* %3, align 4
  br label %21

65:                                               ; preds = %21
  %66 = load i32, i32* %2, align 4
  %67 = sext i32 %66 to i64
  %68 = getelementptr inbounds [26 x [2 x i32]], [26 x [2 x i32]]* @k, i64 0, i64 %67
  %69 = getelementptr inbounds [2 x i32], [2 x i32]* %68, i64 0, i64 0
  %70 = load i32, i32* %69, align 8
  %71 = load i32, i32* %5, align 4
  %72 = icmp sgt i32 %70, %71
  br i1 %72, label %73, label %79

73:                                               ; preds = %65
  %74 = load i32, i32* %2, align 4
  %75 = sext i32 %74 to i64
  %76 = getelementptr inbounds [26 x [2 x i32]], [26 x [2 x i32]]* @k, i64 0, i64 %75
  %77 = getelementptr inbounds [2 x i32], [2 x i32]* %76, i64 0, i64 0
  %78 = load i32, i32* %77, align 8
  store i32 %78, i32* %5, align 4
  br label %79

79:                                               ; preds = %73, %65
  br label %80

80:                                               ; preds = %79
  %81 = load i32, i32* %2, align 4
  %82 = add nsw i32 %81, 1
  store i32 %82, i32* %2, align 4
  br label %7

83:                                               ; preds = %7
  %84 = load i32, i32* %5, align 4
  %85 = call i32 (i8*, ...) @printf(i8* getelementptr inbounds ([3 x i8], [3 x i8]* @.str, i64 0, i64 0), i32 %84)
  ret i32 0
}

declare dso_local i32 @__isoc99_scanf(i8*, ...) #1

declare dso_local i32 @printf(i8*, ...) #1


!llvm.module.flags = !{!0}
!llvm.ident = !{!1}

!0 = !{i32 1, !"wchar_size", i32 4}
!1 = !{!"clang version 10.0.0-4ubuntu1 "}
